; Function Attrs: null_pointer_is_valid sspstrong uwtable
define hidden void @alcap_tree_from_bearer_key(ptr noundef %0, ptr noundef %1, ptr noundef %2, ptr noundef %3) local_unnamed_addr #0 {
  %5 = load ptr, ptr @legs_by_bearer, align 8
  %6 = tail call ptr @wmem_tree_lookup_string(ptr noundef %5, ptr noundef %3, i32 noundef 0)
  %.not = icmp eq ptr %6, null
  br i1 %.not, label %8, label %7

7:                                                ; preds = %4
  tail call fastcc void @alcap_leg_tree(ptr noundef %0, ptr noundef %1, ptr noundef %2, ptr noundef %6)
  br label %8

8:                                                ; preds = %7, %4
  ret void
}